target datalayout = "e-m:e-p270:32:32-p271:32:32-p272:64:64-i64:64-i128:128-f80:128-n8:16:32:64-S128"
target triple = "x86_64-pc-linux-gnu"

%struct.H5O_storage_chunk_t = type { i32, i64, ptr, %union.anon }
%union.anon = type { %struct.H5O_storage_chunk_btree_t }
%struct.H5O_storage_chunk_btree_t = type { i64, ptr }
%struct.H5D_chunk_common_ud_t = type { ptr, ptr, ptr }
%struct.H5D_btree_dbg_t = type { %struct.H5D_chunk_common_ud_t, i32 }
%struct.H5O_layout_chunk_t = type { i32, i8, i32, [33 x i32], i32, i32, i64, i64, [33 x i64], [33 x i64], [33 x i64], [33 x i64], %union.anon.0 }
%union.anon.0 = type { %struct.H5O_layout_chunk_earray_t }
%struct.H5O_layout_chunk_earray_t = type { %struct.anon.1, i32, [33 x i32], [33 x i64], [33 x i64] }
%struct.anon.1 = type { i8, i8, i8, i8, i8 }

@H5D_init_g = external global i8, align 1
@H5_libterm_g = external global i8, align 1
@.str = private unnamed_addr constant [102 x i8] c"generated/home/dtcxzyw/WorkSpace/Projects/compilers/llvm-opt-benchmark/bench/hdf5/hdf5/src/H5Dbtree.c\00", align 1
@__func__.H5D_btree_debug = private unnamed_addr constant [16 x i8] c"H5D_btree_debug\00", align 1
@H5E_FUNC_g = external global i64, align 8
@H5E_CANTINIT_g = external global i64, align 8
@.str.1 = private unnamed_addr constant [32 x i8] c"interface initialization failed\00", align 1
@H5E_RESOURCE_g = external global i64, align 8
@.str.2 = private unnamed_addr constant [44 x i8] c"can't create wrapper for shared B-tree info\00", align 1
@H5E_IO_g = external global i64, align 8
@H5E_CANTFREE_g = external global i64, align 8
@.str.3 = private unnamed_addr constant [28 x i8] c"ref-counted shared info nil\00", align 1
@.str.4 = private unnamed_addr constant [44 x i8] c"unable to decrement ref-counted shared info\00", align 1

; Function Attrs: nounwind uwtable
define i32 @H5D_btree_debug(ptr noundef %0, i64 noundef %1, ptr noundef %2, i32 noundef %3, i32 noundef %4, i32 noundef %5, ptr noundef %6) #0 {
  %8 = alloca ptr, align 8
  %9 = alloca i64, align 8
  %10 = alloca ptr, align 8
  %11 = alloca i32, align 4
  %12 = alloca i32, align 4
  %13 = alloca i32, align 4
  %14 = alloca ptr, align 8
  %15 = alloca %struct.H5D_btree_dbg_t, align 8
  %16 = alloca %struct.H5O_storage_chunk_t, align 8
  %17 = alloca %struct.H5O_layout_chunk_t, align 8
  %18 = alloca i8, align 1
  %19 = alloca i32, align 4
  %20 = alloca i32, align 4
  %21 = alloca i8, align 1
  store ptr %0, ptr %8, align 8, !tbaa !56
  store i64 %1, ptr %9, align 8, !tbaa !10
  store ptr %2, ptr %10, align 8, !tbaa !54
  store i32 %3, ptr %11, align 4, !tbaa !12
  store i32 %4, ptr %12, align 4, !tbaa !12
  store i32 %5, ptr %13, align 4, !tbaa !12
  store ptr %6, ptr %14, align 8, !tbaa !57
  call void @llvm.lifetime.start.p0(i64 32, ptr %15) #8
  call void @llvm.lifetime.start.p0(i64 40, ptr %16) #8
  call void @llvm.lifetime.start.p0(i64 1896, ptr %17) #8
  call void @llvm.lifetime.start.p0(i64 1, ptr %18) #8
  store i8 0, ptr %18, align 1, !tbaa !14
  call void @llvm.lifetime.start.p0(i64 4, ptr %19) #8
  call void @llvm.lifetime.start.p0(i64 4, ptr %20) #8
  store i32 0, ptr %20, align 4, !tbaa !12
  call void @llvm.lifetime.start.p0(i64 1, ptr %21) #8
  store i8 0, ptr %21, align 1, !tbaa !14
  %22 = load i8, ptr @H5D_init_g, align 1, !tbaa !14, !range !16, !noundef !17
  %23 = trunc i8 %22 to i1
  br i1 %23, label %28, label %24

24:                                               ; preds = %7
  %25 = load i8, ptr @H5_libterm_g, align 1, !tbaa !14, !range !16, !noundef !17
  %26 = trunc i8 %25 to i1
  %27 = xor i1 %26, true
  br label %28

28:                                               ; preds = %24, %7
  %29 = phi i1 [ false, %7 ], [ %27, %24 ]
  %30 = xor i1 %29, true
  %31 = xor i1 %30, true
  %32 = zext i1 %31 to i32
  %33 = sext i32 %32 to i64
  %34 = call i64 @llvm.expect.i64(i64 %33, i64 0)
  %35 = icmp ne i64 %34, 0
  br i1 %35, label %36, label %59

36:                                               ; preds = %28
  store i8 1, ptr @H5D_init_g, align 1, !tbaa !14
  %37 = call i32 @H5D__init_package()
  %38 = icmp slt i32 %37, 0
  br i1 %38, label %39, label %58

39:                                               ; preds = %36
  store i8 0, ptr @H5D_init_g, align 1, !tbaa !14
  br label %40

40:                                               ; preds = %39
  br label %41

41:                                               ; preds = %40
  br label %42

42:                                               ; preds = %41
  %43 = load i64, ptr @H5E_FUNC_g, align 8, !tbaa !10
  %44 = load i64, ptr @H5E_CANTINIT_g, align 8, !tbaa !10
  %45 = call i32 (ptr, ptr, i32, i64, i64, ptr, ...) @H5E_printf_stack(ptr noundef @.str, ptr noundef @__func__.H5D_btree_debug, i32 noundef 1443, i64 noundef %43, i64 noundef %44, ptr noundef @.str.1)
  br label %46

46:                                               ; preds = %42
  br label %47

47:                                               ; preds = %46
  store i8 1, ptr %21, align 1, !tbaa !14
  %48 = load i8, ptr %21, align 1, !tbaa !14, !range !16, !noundef !17
  %49 = trunc i8 %48 to i1
  %50 = zext i1 %49 to i8
  store i8 %50, ptr %21, align 1, !tbaa !14
  br label %51

51:                                               ; preds = %47
  br label %52

52:                                               ; preds = %51
  br label %53

53:                                               ; preds = %52
  store i32 -1, ptr %20, align 4, !tbaa !12
  br label %133

54:                                               ; No predecessors!
  br label %55

55:                                               ; preds = %54
  br label %56

56:                                               ; preds = %55
  br label %57

57:                                               ; preds = %56
  br label %58

58:                                               ; preds = %57, %36
  br label %59

59:                                               ; preds = %58, %28
  %60 = load i8, ptr @H5D_init_g, align 1, !tbaa !14, !range !16, !noundef !17
  %61 = trunc i8 %60 to i1
  br i1 %61, label %66, label %62

62:                                               ; preds = %59
  %63 = load i8, ptr @H5_libterm_g, align 1, !tbaa !14, !range !16, !noundef !17
  %64 = trunc i8 %63 to i1
  %65 = xor i1 %64, true
  br label %66

66:                                               ; preds = %62, %59
  %67 = phi i1 [ true, %59 ], [ %65, %62 ]
  %68 = xor i1 %67, true
  %69 = xor i1 %68, true
  %70 = zext i1 %69 to i32
  %71 = sext i32 %70 to i64
  %72 = call i64 @llvm.expect.i64(i64 %71, i64 1)
  %73 = icmp ne i64 %72, 0
  br i1 %73, label %74, label %182

74:                                               ; preds = %66
  call void @llvm.memset.p0.i64(ptr align 8 %16, i8 0, i64 40, i1 false)
  %75 = getelementptr inbounds nuw %struct.H5O_storage_chunk_t, ptr %16, i32 0, i32 0
  store i32 0, ptr %75, align 8, !tbaa !59
  call void @llvm.memset.p0.i64(ptr align 8 %17, i8 0, i64 1896, i1 false)
  %76 = load i32, ptr %13, align 4, !tbaa !12
  %77 = getelementptr inbounds nuw %struct.H5O_layout_chunk_t, ptr %17, i32 0, i32 2
  store i32 %76, ptr %77, align 8, !tbaa !60
  store i32 0, ptr %19, align 4, !tbaa !12
  br label %78

78:                                               ; preds = %92, %74
  %79 = load i32, ptr %19, align 4, !tbaa !12
  %80 = load i32, ptr %13, align 4, !tbaa !12
  %81 = icmp ult i32 %79, %80
  br i1 %81, label %82, label %95

82:                                               ; preds = %78
  %83 = load ptr, ptr %14, align 8, !tbaa !57
  %84 = load i32, ptr %19, align 4, !tbaa !12
  %85 = zext i32 %84 to i64
  %86 = getelementptr inbounds nuw i32, ptr %83, i64 %85
  %87 = load i32, ptr %86, align 4, !tbaa !12
  %88 = getelementptr inbounds nuw %struct.H5O_layout_chunk_t, ptr %17, i32 0, i32 3
  %89 = load i32, ptr %19, align 4, !tbaa !12
  %90 = zext i32 %89 to i64
  %91 = getelementptr inbounds nuw [33 x i32], ptr %88, i64 0, i64 %90
  store i32 %87, ptr %91, align 4, !tbaa !12
  br label %92

92:                                               ; preds = %82
  %93 = load i32, ptr %19, align 4, !tbaa !12
  %94 = add i32 %93, 1
  store i32 %94, ptr %19, align 4, !tbaa !12
  br label %78, !llvm.loop !62

95:                                               ; preds = %78
  %96 = load ptr, ptr %8, align 8, !tbaa !56
  %97 = call i32 @H5D__btree_shared_create(ptr noundef %96, ptr noundef %16, ptr noundef %17)
  %98 = icmp slt i32 %97, 0
  br i1 %98, label %99, label %118

99:                                               ; preds = %95
  br label %100

100:                                              ; preds = %99
  br label %101

101:                                              ; preds = %100
  br label %102

102:                                              ; preds = %101
  %103 = load i64, ptr @H5E_RESOURCE_g, align 8, !tbaa !10
  %104 = load i64, ptr @H5E_CANTINIT_g, align 8, !tbaa !10
  %105 = call i32 (ptr, ptr, i32, i64, i64, ptr, ...) @H5E_printf_stack(ptr noundef @.str, ptr noundef @__func__.H5D_btree_debug, i32 noundef 1457, i64 noundef %103, i64 noundef %104, ptr noundef @.str.2)
  br label %106

106:                                              ; preds = %102
  br label %107

107:                                              ; preds = %106
  store i8 1, ptr %21, align 1, !tbaa !14
  %108 = load i8, ptr %21, align 1, !tbaa !14, !range !16, !noundef !17
  %109 = trunc i8 %108 to i1
  %110 = zext i1 %109 to i8
  store i8 %110, ptr %21, align 1, !tbaa !14
  br label %111

111:                                              ; preds = %107
  br label %112

112:                                              ; preds = %111
  br label %113

113:                                              ; preds = %112
  store i32 -1, ptr %20, align 4, !tbaa !12
  br label %133

114:                                              ; No predecessors!
  br label %115

115:                                              ; preds = %114
  br label %116

116:                                              ; preds = %115
  br label %117

117:                                              ; preds = %116
  br label %118

118:                                              ; preds = %117, %95
  store i8 1, ptr %18, align 1, !tbaa !14
  %119 = getelementptr inbounds nuw %struct.H5D_btree_dbg_t, ptr %15, i32 0, i32 0
  %120 = getelementptr inbounds nuw %struct.H5D_chunk_common_ud_t, ptr %119, i32 0, i32 0
  store ptr %17, ptr %120, align 8, !tbaa !64
  %121 = getelementptr inbounds nuw %struct.H5D_btree_dbg_t, ptr %15, i32 0, i32 0
  %122 = getelementptr inbounds nuw %struct.H5D_chunk_common_ud_t, ptr %121, i32 0, i32 1
  store ptr %16, ptr %122, align 8, !tbaa !66
  %123 = getelementptr inbounds nuw %struct.H5D_btree_dbg_t, ptr %15, i32 0, i32 0
  %124 = getelementptr inbounds nuw %struct.H5D_chunk_common_ud_t, ptr %123, i32 0, i32 2
  store ptr null, ptr %124, align 8, !tbaa !67
  %125 = load i32, ptr %13, align 4, !tbaa !12
  %126 = getelementptr inbounds nuw %struct.H5D_btree_dbg_t, ptr %15, i32 0, i32 1
  store i32 %125, ptr %126, align 8, !tbaa !68
  %127 = load ptr, ptr %8, align 8, !tbaa !56
  %128 = load i64, ptr %9, align 8, !tbaa !10
  %129 = load ptr, ptr %10, align 8, !tbaa !54
  %130 = load i32, ptr %11, align 4, !tbaa !12
  %131 = load i32, ptr %12, align 4, !tbaa !12
  %132 = call i32 @H5B_debug(ptr noundef %127, i64 noundef %128, ptr noundef %129, i32 noundef %130, i32 noundef %131, ptr noundef @H5B_BTREE, ptr noundef %15)
  br label %133

133:                                              ; preds = %118, %113, %53
  %134 = load i8, ptr %18, align 1, !tbaa !14, !range !16, !noundef !17
  %135 = trunc i8 %134 to i1
  br i1 %135, label %136, label %181

136:                                              ; preds = %133
  %137 = getelementptr inbounds nuw %struct.H5O_storage_chunk_t, ptr %16, i32 0, i32 3
  %138 = getelementptr inbounds nuw %struct.H5O_storage_chunk_btree_t, ptr %137, i32 0, i32 1
  %139 = load ptr, ptr %138, align 8, !tbaa !24
  %140 = icmp eq ptr null, %139
  br i1 %140, label %141, label %157

141:                                              ; preds = %136
  br label %142

142:                                              ; preds = %141
  br label %143

143:                                              ; preds = %142
  br label %144

144:                                              ; preds = %143
  %145 = load i64, ptr @H5E_IO_g, align 8, !tbaa !10
  %146 = load i64, ptr @H5E_CANTFREE_g, align 8, !tbaa !10
  %147 = call i32 (ptr, ptr, i32, i64, i64, ptr, ...) @H5E_printf_stack(ptr noundef @.str, ptr noundef @__func__.H5D_btree_debug, i32 noundef 1473, i64 noundef %145, i64 noundef %146, ptr noundef @.str.3)
  br label %148

148:                                              ; preds = %144
  br label %149

149:                                              ; preds = %148
  store i8 1, ptr %21, align 1, !tbaa !14
  %150 = load i8, ptr %21, align 1, !tbaa !14, !range !16, !noundef !17
  %151 = trunc i8 %150 to i1
  %152 = zext i1 %151 to i8
  store i8 %152, ptr %21, align 1, !tbaa !14
  br label %153

153:                                              ; preds = %149
  br label %154

154:                                              ; preds = %153
  store i32 -1, ptr %20, align 4, !tbaa !12
  br label %155

155:                                              ; preds = %154
  br label %156

156:                                              ; preds = %155
  br label %180

157:                                              ; preds = %136
  %158 = getelementptr inbounds nuw %struct.H5O_storage_chunk_t, ptr %16, i32 0, i32 3
  %159 = getelementptr inbounds nuw %struct.H5O_storage_chunk_btree_t, ptr %158, i32 0, i32 1
  %160 = load ptr, ptr %159, align 8, !tbaa !24
  %161 = call i32 @H5UC_decr(ptr noundef %160)
  %162 = icmp slt i32 %161, 0
  br i1 %162, label %163, label %179

163:                                              ; preds = %157
  br label %164

164:                                              ; preds = %163
  br label %165

165:                                              ; preds = %164
  br label %166

166:                                              ; preds = %165
  %167 = load i64, ptr @H5E_IO_g, align 8, !tbaa !10
  %168 = load i64, ptr @H5E_CANTFREE_g, align 8, !tbaa !10
  %169 = call i32 (ptr, ptr, i32, i64, i64, ptr, ...) @H5E_printf_stack(ptr noundef @.str, ptr noundef @__func__.H5D_btree_debug, i32 noundef 1475, i64 noundef %167, i64 noundef %168, ptr noundef @.str.4)
  br label %170

170:                                              ; preds = %166
  br label %171

171:                                              ; preds = %170
  store i8 1, ptr %21, align 1, !tbaa !14
  %172 = load i8, ptr %21, align 1, !tbaa !14, !range !16, !noundef !17
  %173 = trunc i8 %172 to i1
  %174 = zext i1 %173 to i8
  store i8 %174, ptr %21, align 1, !tbaa !14
  br label %175

175:                                              ; preds = %171
  br label %176

176:                                              ; preds = %175
  store i32 -1, ptr %20, align 4, !tbaa !12
  br label %177

177:                                              ; preds = %176
  br label %178

178:                                              ; preds = %177
  br label %179

179:                                              ; preds = %178, %157
  br label %180

180:                                              ; preds = %179, %156
  br label %181

181:                                              ; preds = %180, %133
  br label %182

182:                                              ; preds = %181, %66
  %183 = load i32, ptr %20, align 4, !tbaa !12
  call void @llvm.lifetime.end.p0(i64 1, ptr %21) #8
  call void @llvm.lifetime.end.p0(i64 4, ptr %20) #8
  call void @llvm.lifetime.end.p0(i64 4, ptr %19) #8
  call void @llvm.lifetime.end.p0(i64 1, ptr %18) #8
  call void @llvm.lifetime.end.p0(i64 1896, ptr %17) #8
  call void @llvm.lifetime.end.p0(i64 40, ptr %16) #8
  call void @llvm.lifetime.end.p0(i64 32, ptr %15) #8
  ret i32 %183
}