; Function Attrs: nounwind uwtable
define range(i32 -1, 1) i32 @H5D_btree_debug(ptr noundef %0, i64 noundef %1, ptr noundef %2, i32 noundef %3, i32 noundef %4, i32 noundef %5, ptr noundef readonly captures(none) %6) local_unnamed_addr #0 {
  %8 = alloca %struct.H5D_btree_dbg_t, align 8
  %9 = alloca %struct.H5O_storage_chunk_t, align 8
  %10 = alloca %struct.H5O_layout_chunk_t, align 8
  call void @llvm.lifetime.start.p0(i64 32, ptr nonnull %8) #15
  call void @llvm.lifetime.start.p0(i64 40, ptr nonnull %9) #15
  call void @llvm.lifetime.start.p0(i64 1896, ptr nonnull %10) #15
  %11 = load i8, ptr @H5D_init_g, align 1, !tbaa !3, !range !7, !noundef !8
  %12 = trunc nuw i8 %11 to i1
  %13 = load i8, ptr @H5_libterm_g, align 1, !range !7
  %14 = trunc nuw i8 %13 to i1
  %15 = select i1 %12, i1 true, i1 %14
  br i1 %15, label %23, label %16, !prof !9

16:                                               ; preds = %7
  store i8 1, ptr @H5D_init_g, align 1, !tbaa !3
  %17 = tail call i32 @H5D__init_package() #15
  %18 = icmp slt i32 %17, 0
  br i1 %18, label %19, label %._crit_edge27

._crit_edge27:                                    ; preds = %16
  %.pre = load i8, ptr @H5D_init_g, align 1, !tbaa !3, !range !7
  %.pre28 = load i8, ptr @H5_libterm_g, align 1, !range !7
  %.pre29 = trunc nuw i8 %.pre to i1
  %.pre30 = trunc nuw i8 %.pre28 to i1
  br label %23

19:                                               ; preds = %16
  store i8 0, ptr @H5D_init_g, align 1, !tbaa !3
  %20 = load i64, ptr @H5E_FUNC_g, align 8, !tbaa !20
  %21 = load i64, ptr @H5E_CANTINIT_g, align 8, !tbaa !20
  %22 = tail call i32 (ptr, ptr, i32, i64, i64, ptr, ...) @H5E_printf_stack(ptr noundef nonnull @.str, ptr noundef nonnull @__func__.H5D_btree_debug, i32 noundef 1443, i64 noundef %20, i64 noundef %21, ptr noundef nonnull @.str.1) #15
  br label %.thread

23:                                               ; preds = %._crit_edge27, %7
  %.pre-phi31 = phi i1 [ %.pre30, %._crit_edge27 ], [ %14, %7 ]
  %.pre-phi = phi i1 [ %.pre29, %._crit_edge27 ], [ %12, %7 ]
  %24 = xor i1 %.pre-phi31, true
  %25 = select i1 %.pre-phi, i1 true, i1 %24
  br i1 %25, label %26, label %.thread, !prof !9

26:                                               ; preds = %23
  call void @llvm.memset.p0.i64(ptr noundef nonnull align 8 dereferenceable(40) %9, i8 0, i64 40, i1 false)
  call void @llvm.memset.p0.i64(ptr noundef nonnull align 8 dereferenceable(1896) %10, i8 0, i64 1896, i1 false)
  %27 = getelementptr inbounds nuw i8, ptr %10, i64 8
  store i32 %5, ptr %27, align 8, !tbaa !40
  %.not = icmp eq i32 %5, 0
  br i1 %.not, label %._crit_edge, label %.lr.ph

.lr.ph:                                           ; preds = %26
  %28 = getelementptr inbounds nuw i8, ptr %10, i64 12
  %29 = zext i32 %5 to i64
  %30 = shl nuw nsw i64 %29, 2
  call void @llvm.memcpy.p0.p0.i64(ptr nonnull align 4 %28, ptr align 4 %6, i64 %30, i1 false), !tbaa !36
  br label %._crit_edge

._crit_edge:                                      ; preds = %.lr.ph, %26
  %31 = call fastcc i32 @H5D__btree_shared_create(ptr noundef %0, ptr noundef nonnull %9, ptr noundef nonnull %10)
  %32 = icmp slt i32 %31, 0
  br i1 %32, label %33, label %37

33:                                               ; preds = %._crit_edge
  %34 = load i64, ptr @H5E_RESOURCE_g, align 8, !tbaa !20
  %35 = load i64, ptr @H5E_CANTINIT_g, align 8, !tbaa !20
  %36 = tail call i32 (ptr, ptr, i32, i64, i64, ptr, ...) @H5E_printf_stack(ptr noundef nonnull @.str, ptr noundef nonnull @__func__.H5D_btree_debug, i32 noundef 1457, i64 noundef %34, i64 noundef %35, ptr noundef nonnull @.str.2) #15
  br label %.thread

37:                                               ; preds = %._crit_edge
  store ptr %10, ptr %8, align 8, !tbaa !42
  %38 = getelementptr inbounds nuw i8, ptr %8, i64 8
  store ptr %9, ptr %38, align 8, !tbaa !44
  %39 = getelementptr inbounds nuw i8, ptr %8, i64 16
  store ptr null, ptr %39, align 8, !tbaa !45
  %40 = getelementptr inbounds nuw i8, ptr %8, i64 24
  store i32 %5, ptr %40, align 8, !tbaa !46
  %41 = call i32 @H5B_debug(ptr noundef %0, i64 noundef %1, ptr noundef %2, i32 noundef %3, i32 noundef %4, ptr noundef nonnull @H5B_BTREE, ptr noundef nonnull %8) #15
  %42 = getelementptr inbounds nuw i8, ptr %9, i64 32
  %43 = load ptr, ptr %42, align 8, !tbaa !17
  %44 = icmp eq ptr %43, null
  br i1 %44, label %45, label %49

45:                                               ; preds = %37
  %46 = load i64, ptr @H5E_IO_g, align 8, !tbaa !20
  %47 = load i64, ptr @H5E_CANTFREE_g, align 8, !tbaa !20
  %48 = call i32 (ptr, ptr, i32, i64, i64, ptr, ...) @H5E_printf_stack(ptr noundef nonnull @.str, ptr noundef nonnull @__func__.H5D_btree_debug, i32 noundef 1473, i64 noundef %46, i64 noundef %47, ptr noundef nonnull @.str.3) #15
  br label %.thread

49:                                               ; preds = %37
  %50 = call i32 @H5UC_decr(ptr noundef nonnull %43) #15
  %51 = icmp slt i32 %50, 0
  br i1 %51, label %52, label %.thread

52:                                               ; preds = %49
  %53 = load i64, ptr @H5E_IO_g, align 8, !tbaa !20
  %54 = load i64, ptr @H5E_CANTFREE_g, align 8, !tbaa !20
  %55 = call i32 (ptr, ptr, i32, i64, i64, ptr, ...) @H5E_printf_stack(ptr noundef nonnull @.str, ptr noundef nonnull @__func__.H5D_btree_debug, i32 noundef 1475, i64 noundef %53, i64 noundef %54, ptr noundef nonnull @.str.4) #15
  br label %.thread

.thread:                                          ; preds = %33, %19, %49, %52, %45, %23
  %.1 = phi i32 [ -1, %45 ], [ -1, %52 ], [ 0, %49 ], [ 0, %23 ], [ -1, %19 ], [ -1, %33 ]
  call void @llvm.lifetime.end.p0(i64 1896, ptr nonnull %10) #15
  call void @llvm.lifetime.end.p0(i64 40, ptr nonnull %9) #15
  call void @llvm.lifetime.end.p0(i64 32, ptr nonnull %8) #15
  ret i32 %.1
}